(dp1
I0
(dp2
sI1
(dp3
sI2
(dp4
sI3
(dp5
sI4
(dp6
sI5
(dp7
sI6
(dp8
sI7
(dp9
sI8
(dp10
sI9
(dp11
sI10
(dp12
sI11
(dp13
sI12
(dp14
sI13
(dp15
sI14
(dp16
sI15
(dp17
sI16
(dp18
sI17
(dp19
sI18
(dp20
sI19
(dp21
sI20
(dp22
sI21
(dp23
sI22
(dp24
sI23
(dp25
sI24
(dp26
sI25
(dp27
sI26
(dp28
sI27
(dp29
sI28
(dp30
sI29
(dp31
sI30
(dp32
sI31
(dp33
sI32
(dp34
sI33
(dp35
sI34
(dp36
sI35
(dp37
sI36
(dp38
sI37
(dp39
sI38
(dp40
sI39
(dp41
sI40
(dp42
sI41
(dp43
sI42
(dp44
sI43
(dp45
sI44
(dp46
sI45
(dp47
sI46
(dp48
sI47
(dp49
sI48
(dp50
sI49
(dp51
sI50
(dp52
sI51
(dp53
sI52
(dp54
sI53
(dp55
sI54
(dp56
sI55
(dp57
sI56
(dp58
sI57
(dp59
sI58
(dp60
sI59
(dp61
sI60
(dp62
sI61
(dp63
sI62
(dp64
sI63
(dp65
sI64
(dp66
sI65
(dp67
sI66
(dp68
sI67
(dp69
sI68
(dp70
sI69
(dp71
sI70
(dp72
sI71
(dp73
sI72
(dp74
sI73
(dp75
sI74
(dp76
sI75
(dp77
sI76
(dp78
sI77
(dp79
sI78
(dp80
sI79
(dp81
sI80
(dp82
sI81
(dp83
sI82
(dp84
sI83
(dp85
sI84
(dp86
sI85
(dp87
sI86
(dp88
sI87
(dp89
sI88
(dp90
sI89
(dp91
sI90
(dp92
sI91
(dp93
sI92
(dp94
sI93
(dp95
sI94
(dp96
sI95
(dp97
sI96
(dp98
sI97
(dp99
sI98
(dp100
sI99
(dp101
sI100
(dp102
sI101
(dp103
sI102
(dp104
sI103
(dp105
sI104
(dp106
sI105
(dp107
sI106
(dp108
sI107
(dp109
sI108
(dp110
sI109
(dp111
sI110
(dp112
sI111
(dp113
sI112
(dp114
sI113
(dp115
sI114
(dp116
sI115
(dp117
sI116
(dp118
sI117
(dp119
sI118
(dp120
sI119
(dp121
sI120
(dp122
sI121
(dp123
sI122
(dp124
sI123
(dp125
sI124
(dp126
sI125
(dp127
sI126
(dp128
sI127
(dp129
sI128
(dp130
sI129
(dp131
sI130
(dp132
sI131
(dp133
sI132
(dp134
sI133
(dp135
sI134
(dp136
sI135
(dp137
sI136
(dp138
sI137
(dp139
sI138
(dp140
sI139
(dp141
sI140
(dp142
sI141
(dp143
sI142
(dp144
sI143
(dp145
sI144
(dp146
sI145
(dp147
sI146
(dp148
sI147
(dp149
sI148
(dp150
sI149
(dp151
sI150
(dp152
sI151
(dp153
sI152
(dp154
sI153
(dp155
sI154
(dp156
sI155
(dp157
sI156
(dp158
sI157
(dp159
sI158
(dp160
sI159
(dp161
sI160
(dp162
sI161
(dp163
sI162
(dp164
sI163
(dp165
sI164
(dp166
sI165
(dp167
sI166
(dp168
sI167
(dp169
sI168
(dp170
sI169
(dp171
sI170
(dp172
sI171
(dp173
sI172
(dp174
sI173
(dp175
sI174
(dp176
sI175
(dp177
sI176
(dp178
sI177
(dp179
sI178
(dp180
sI179
(dp181
sI180
(dp182
sI181
(dp183
sI182
(dp184
sI183
(dp185
sI184
(dp186
sI185
(dp187
sI186
(dp188
sI187
(dp189
sI188
(dp190
sI189
(dp191
sI190
(dp192
sI191
(dp193
sI192
(dp194
sI193
(dp195
sI194
(dp196
sI195
(dp197
sI196
(dp198
sI197
(dp199
sI198
(dp200
sI199
(dp201
sI200
(dp202
sI201
(dp203
sI202
(dp204
sI203
(dp205
sI204
(dp206
sI205
(dp207
sI206
(dp208
sI207
(dp209
sI208
(dp210
sI209
(dp211
sI210
(dp212
sI211
(dp213
sI212
(dp214
sI213
(dp215
sI214
(dp216
sI215
(dp217
sI216
(dp218
sI217
(dp219
sI218
(dp220
sI219
(dp221
sI220
(dp222
sI221
(dp223
sI222
(dp224
sI223
(dp225
sI224
(dp226
sI225
(dp227
sI226
(dp228
sI227
(dp229
sI228
(dp230
sI229
(dp231
sI230
(dp232
sI231
(dp233
sI232
(dp234
sI233
(dp235
sI234
(dp236
sI235
(dp237
sI236
(dp238
sI237
(dp239
sI238
(dp240
sI239
(dp241
sI240
(dp242
sI241
(dp243
sI242
(dp244
sI243
(dp245
sI244
(dp246
sI245
(dp247
sI246
(dp248
sI247
(dp249
sI248
(dp250
sI249
(dp251
sI250
(dp252
sI251
(dp253
sI252
(dp254
sI253
(dp255
sI254
(dp256
sI255
(dp257
sI256
(dp258
sI257
(dp259
sI258
(dp260
sI259
(dp261
sI260
(dp262
sI261
(dp263
sI262
(dp264
sI263
(dp265
sI264
(dp266
sI265
(dp267
sI266
(dp268
sI267
(dp269
sI268
(dp270
sI269
(dp271
sI270
(dp272
sI271
(dp273
sI272
(dp274
sI273
(dp275
sI274
(dp276
sI275
(dp277
sI276
(dp278
sI277
(dp279
sI278
(dp280
sI279
(dp281
sI280
(dp282
sI281
(dp283
sI282
(dp284
sI283
(dp285
sI284
(dp286
sI285
(dp287
sI286
(dp288
sI287
(dp289
sI288
(dp290
sI289
(dp291
sI290
(dp292
sI291
(dp293
sI292
(dp294
sI293
(dp295
sI294
(dp296
sI295
(dp297
sI296
(dp298
sI297
(dp299
sI298
(dp300
sI299
(dp301
sI300
(dp302
sI301
(dp303
sI302
(dp304
sI303
(dp305
sI304
(dp306
sI305
(dp307
sI306
(dp308
sI307
(dp309
sI308
(dp310
sI309
(dp311
sI310
(dp312
sI311
(dp313
sI312
(dp314
sI313
(dp315
sI314
(dp316
sI315
(dp317
sI316
(dp318
sI317
(dp319
sI318
(dp320
sI319
(dp321
sI320
(dp322
sI321
(dp323
sI322
(dp324
sI323
(dp325
sI324
(dp326
sI325
(dp327
sI326
(dp328
sI327
(dp329
sI328
(dp330
sI329
(dp331
sI330
(dp332
sI331
(dp333
sI332
(dp334
sI333
(dp335
sI334
(dp336
sI335
(dp337
sI336
(dp338
sI337
(dp339
sI338
(dp340
sI339
(dp341
sI340
(dp342
sI341
(dp343
sI342
(dp344
sI343
(dp345
sI344
(dp346
sI345
(dp347
sI346
(dp348
sI347
(dp349
sI348
(dp350
sI349
(dp351
sI350
(dp352
sI351
(dp353
sI352
(dp354
sI353
(dp355
sI354
(dp356
sI355
(dp357
sI356
(dp358
sI357
(dp359
sI358
(dp360
sI359
(dp361
sI360
(dp362
sI361
(dp363
sI362
(dp364
sI363
(dp365
sI364
(dp366
sI365
(dp367
sI366
(dp368
sI367
(dp369
sI368
(dp370
sI369
(dp371
sI370
(dp372
sI371
(dp373
sI372
(dp374
sI373
(dp375
sI374
(dp376
sI375
(dp377
sI376
(dp378
sI377
(dp379
sI378
(dp380
sI379
(dp381
sI380
(dp382
sI381
(dp383
sI382
(dp384
sI383
(dp385
sI384
(dp386
sI385
(dp387
sI386
(dp388
sI387
(dp389
sI388
(dp390
sI389
(dp391
sI390
(dp392
sI391
(dp393
sI392
(dp394
sI393
(dp395
sI394
(dp396
sI395
(dp397
sI396
(dp398
sI397
(dp399
sI398
(dp400
sI399
(dp401
sI400
(dp402
sI401
(dp403
sI402
(dp404
sI403
(dp405
sI404
(dp406
sI405
(dp407
sI406
(dp408
sI407
(dp409
sI408
(dp410
sI409
(dp411
sI410
(dp412
sI411
(dp413
sI412
(dp414
sI413
(dp415
sI414
(dp416
sI415
(dp417
sI416
(dp418
sI417
(dp419
sI418
(dp420
sI419
(dp421
sI420
(dp422
sI421
(dp423
sI422
(dp424
sI423
(dp425
sI424
(dp426
sI425
(dp427
sI426
(dp428
sI427
(dp429
sI428
(dp430
sI429
(dp431
sI430
(dp432
sI431
(dp433
sI432
(dp434
sI433
(dp435
sI434
(dp436
sI435
(dp437
sI436
(dp438
sI437
(dp439
sI438
(dp440
sI439
(dp441
sI440
(dp442
sI441
(dp443
sI442
(dp444
sI443
(dp445
sI444
(dp446
sI445
(dp447
sI446
(dp448
sI447
(dp449
sI448
(dp450
sI449
(dp451
sI450
(dp452
sI451
(dp453
sI452
(dp454
sI453
(dp455
sI454
(dp456
sI455
(dp457
sI456
(dp458
sI457
(dp459
sI458
(dp460
sI459
(dp461
sI460
(dp462
sI461
(dp463
sI462
(dp464
sI463
(dp465
sI464
(dp466
sI465
(dp467
sI466
(dp468
sI467
(dp469
sI468
(dp470
sI469
(dp471
sI470
(dp472
sI471
(dp473
sI472
(dp474
sI473
(dp475
sI474
(dp476
sI475
(dp477
sI476
(dp478
sI477
(dp479
sI478
(dp480
sI479
(dp481
sI480
(dp482
sI481
(dp483
sI482
(dp484
sI483
(dp485
sI484
(dp486
sI485
(dp487
sI486
(dp488
sI487
(dp489
sI488
(dp490
sI489
(dp491
sI490
(dp492
sI491
(dp493
sI492
(dp494
sI493
(dp495
sI494
(dp496
sI495
(dp497
sI496
(dp498
sI497
(dp499
sI498
(dp500
sI499
(dp501
s.